Certificate:
    Data:
        Version: 1 (0x0)
        Serial Number:
            20:0e:90:5e:0e:41:e6:79:4c:1e:5a:d0:b7:d7:89:24:a4:60:54:20
        Signature Algorithm: sha1WithRSAEncryption
        Issuer: C = C1, ST = JS1, L = WX1, O = ESP1, OU = ESP1, CN = Server1 CA, emailAddress = ESP1
        Validity
            Not Before: Mar 10 10:33:22 2026 GMT
            Not After : Nov 17 10:33:22 2039 GMT
        Subject: C = C1, ST = JS1, L = WX1, O = ESP1, OU = ESP1, CN = Server1 CA, emailAddress = ESP1
        Subject Public Key Info:
            Public Key Algorithm: rsaEncryption
                Public-Key: (2048 bit)
                Modulus:
                    00:a4:45:52:45:59:7c:69:99:c8:65:13:b8:bb:d7:
                    df:b6:43:79:98:97:9e:fb:53:c9:20:02:16:f1:ab:
                    85:a0:b7:e0:23:fd:5a:5e:4c:4e:08:69:86:60:e6:
                    f9:31:c0:01:5e:8d:d7:d4:e2:ca:2d:56:dc:bd:6d:
                    c9:bf:39:c4:e8:9e:7a:42:f3:db:46:27:ea:0f:e5:
                    c3:e9:b7:ea:50:bb:1e:48:52:0f:f6:7a:67:43:bb:
                    ec:c7:37:af:e8:31:50:df:8c:bd:e9:46:05:1b:73:
                    4b:be:53:84:43:80:7e:a6:e6:7b:c9:a5:31:04:7c:
                    04:b6:69:c7:27:0f:94:20:05:85:2a:e0:a7:97:9a:
                    dc:bc:bf:c8:f6:a2:bd:c8:00:63:95:6b:5d:75:34:
                    17:69:0e:9f:33:60:d0:85:6c:31:2c:ae:9a:0b:4d:
                    4c:41:a0:bf:54:b6:d8:7b:e5:a8:65:fe:ff:cc:f2:
                    07:eb:a8:ab:9d:85:63:04:a7:1b:6e:6b:8f:54:70:
                    fb:cb:55:ab:89:7f:e1:99:f8:48:f0:fc:4f:37:dc:
                    b7:a4:a0:95:6a:d2:ee:d0:fb:14:fc:84:a5:48:9a:
                    c1:d7:4b:42:aa:4a:30:99:dc:55:e3:46:65:8d:20:
                    a4:ad:f3:ae:7f:ef:a2:7a:c5:07:47:e8:d0:2a:1d:
                    27:bb
                Exponent: 65537 (0x10001)
    Signature Algorithm: sha1WithRSAEncryption
    Signature Value:
        40:ef:9a:89:7f:61:41:72:67:62:ec:5c:5e:3a:49:18:41:3a:
        02:f9:30:0a:28:9c:14:f2:71:b8:c6:99:0f:fb:a4:6f:52:19:
        78:83:dc:2b:d9:6e:5e:2e:3f:ad:fc:87:8f:0d:08:74:26:a9:
        1f:d6:ca:9c:f7:ec:1f:29:fe:54:5d:61:ce:9a:a8:87:9f:6a:
        2a:a8:03:77:d1:bf:a7:f4:73:ae:41:df:20:e5:63:56:0e:65:
        fc:ed:03:94:1b:39:62:ff:58:8c:ab:59:79:fe:78:bd:c8:1f:
        ba:19:2d:c2:ff:d6:c5:a0:1e:18:70:c9:cd:64:7b:e1:92:68:
        49:27:b6:1b:f2:f0:cd:7b:0c:69:4b:50:62:87:27:dd:dc:1d:
        89:a8:51:4f:4c:08:8c:9a:d1:1e:69:a3:5b:95:9a:ae:ce:f4:
        c3:88:17:83:88:3c:a1:07:d6:53:f9:74:22:b0:ac:2a:6d:5a:
        64:b0:5a:cc:e5:e8:e8:55:b1:9e:e1:96:8d:20:52:39:d6:6a:
        76:f8:6f:20:da:a8:97:ac:9b:76:cc:b8:57:dc:6e:0f:b0:5d:
        5a:7e:fd:c1:8a:2a:dd:c3:bb:a7:34:c6:81:97:c1:da:b2:89:
        cb:47:b7:c3:90:3b:0a:cf:9b:fc:3c:21:57:5b:15:58:6b:f9:
        8f:3a:32:9b
-----BEGIN CERTIFICATE-----
MIIDaTCCAlECFCAOkF4OQeZ5TB5a0LfXiSSkYFQgMA0GCSqGSIb3DQEBBQUAMHEx
CzAJBgNVBAYTAkMxMQwwCgYDVQQIDANKUzExDDAKBgNVBAcMA1dYMTENMAsGA1UE
CgwERVNQMTENMAsGA1UECwwERVNQMTETMBEGA1UEAwwKU2VydmVyMSBDQTETMBEG
CSqGSIb3DQEJARYERVNQMTAeFw0yNjAzMTAxMDMzMjJaFw0zOTExMTcxMDMzMjJa
MHExCzAJBgNVBAYTAkMxMQwwCgYDVQQIDANKUzExDDAKBgNVBAcMA1dYMTENMAsG
A1UECgwERVNQMTENMAsGA1UECwwERVNQMTETMBEGA1UEAwwKU2VydmVyMSBDQTET
MBEGCSqGSIb3DQEJARYERVNQMTCCASIwDQYJKoZIhvcNAQEBBQADggEPADCCAQoC
ggEBAKRFUkVZfGmZyGUTuLvX37ZDeZiXnvtTySACFvGrhaC34CP9Wl5MTghphmDm
+THAAV6N19Tiyi1W3L1tyb85xOieekLz20Yn6g/lw+m36lC7HkhSD/Z6Z0O77Mc3
r+gxUN+MvelGBRtzS75ThEOAfqbme8mlMQR8BLZpxycPlCAFhSrgp5ea3Ly/yPai
vcgAY5VrXXU0F2kOnzNg0IVsMSyumgtNTEGgv1S22HvlqGX+/8zyB+uoq52FYwSn
G25rj1Rw+8tVq4l/4Zn4SPD8Tzfct6SglWrS7tD7FPyEpUiawddLQqpKMJncVeNG
ZY0gpK3zrn/vonrFB0fo0CodJ7sCAwEAATANBgkqhkiG9w0BAQUFAAOCAQEAQO+a
iX9hQXJnYuxcXjpJGEE6AvkwCiicFPJxuMaZD/ukb1IZeIPcK9luXi4/rfyHjw0I
dCapH9bKnPfsHyn+VF1hzpqoh59qKqgDd9G/p/RzrkHfIOVjVg5l/O0DlBs5Yv9Y
jKtZef54vcgfuhktwv/WxaAeGHDJzWR74ZJoSSe2G/LwzXsMaUtQYocn3dwdiahR
T0wIjJrRHmmjW5Wars70w4gXg4g8oQfWU/l0IrCsKm1aZLBazOXo6FWxnuGWjSBS
OdZqdvhvINqol6ybdsy4V9xuD7BdWn79wYoq3cO7pzTGgZfB2rKJy0e3w5A7Cs+b
/DwhV1sVWGv5jzoymw==
-----END CERTIFICATE-----
