Certificate:
    Data:
        Version: 1 (0x0)
        Serial Number:
            17:ee:21:6a:a0:b5:69:30:2f:a6:af:7b:0b:71:e5:b4:54:14:19:f6
        Signature Algorithm: sha256WithRSAEncryption
        Issuer: C = C1, ST = JS1, L = WX1, O = ESP1, OU = ESP1, CN = Server1 CA, emailAddress = ESP1
        Validity
            Not Before: Mar 10 10:33:22 2026 GMT
            Not After : Nov 17 10:33:22 2039 GMT
        Subject: C = C3, ST = JS333, L = WX333, O = ESP333, OU = ESP333, CN = Server333 CA, emailAddress = ESP333
        Subject Public Key Info:
            Public Key Algorithm: rsaEncryption
                Public-Key: (2048 bit)
                Modulus:
                    00:9c:e4:fe:9a:a3:3c:93:69:87:ea:15:c0:c4:f6:
                    3e:76:1d:b4:3f:6e:ad:aa:de:b1:36:01:52:96:2e:
                    04:04:c6:7f:2c:ab:ce:38:8d:6e:44:c5:ff:cc:76:
                    51:5f:4c:2e:b0:2b:a4:95:b5:49:bd:be:b5:93:b3:
                    3d:3d:b0:ee:41:a7:e6:cd:68:1c:09:d7:a5:07:8e:
                    35:18:6e:c9:8d:83:18:12:09:3b:13:c8:27:23:19:
                    29:12:10:11:87:7b:a3:41:53:80:31:a5:6e:61:fd:
                    8e:ad:ee:55:00:7c:58:9c:1e:c2:a3:96:1a:7b:81:
                    b5:4e:4f:d5:ad:87:d5:92:76:f8:93:7f:ad:04:9f:
                    8b:99:63:07:67:a8:73:a1:ef:00:3d:17:44:9d:17:
                    f6:b1:c0:db:b9:81:53:38:6f:5f:40:e0:dc:0d:98:
                    cf:0c:20:46:e6:03:fd:31:f6:50:9d:05:3f:ea:d5:
                    ca:d8:b7:67:d2:dd:88:fd:e8:0c:dc:f2:e0:e4:eb:
                    1a:67:6b:fd:14:6c:73:54:b0:5a:a4:9c:b2:2a:2e:
                    72:a6:3d:be:96:a2:27:f4:b5:30:d6:d3:c8:1a:80:
                    32:cc:19:7f:c6:eb:25:a4:c6:9d:dd:2a:93:0f:66:
                    cb:eb:ee:b3:95:b3:23:a3:87:5c:8d:89:46:ce:d8:
                    a6:73
                Exponent: 65537 (0x10001)
    Signature Algorithm: sha256WithRSAEncryption
    Signature Value:
        26:22:d1:68:57:ad:5d:92:64:66:04:9b:6c:c2:6e:0a:4c:ca:
        69:0a:11:b4:a0:75:df:d3:08:af:b8:7b:77:01:85:6a:70:4f:
        52:78:70:70:eb:d8:54:d8:93:0f:08:b9:37:64:06:86:b8:06:
        0d:91:42:b4:f7:75:74:31:09:ee:38:21:ae:90:8b:01:35:14:
        b7:31:ac:38:4f:52:ac:2a:9b:e4:0e:a8:27:a8:07:78:7f:d2:
        50:ae:0d:09:e1:07:92:ae:7e:9c:2f:a0:ce:0b:2c:9d:84:25:
        6e:47:7d:6c:c0:60:e6:5a:45:13:35:a6:d2:6b:af:43:94:a6:
        e7:37:13:54:94:79:9f:7c:3d:ce:04:8b:d7:17:0f:18:d3:de:
        c1:8a:8c:41:b0:27:23:a9:23:e7:3e:43:45:fa:91:89:5a:e8:
        88:e9:42:ee:56:b0:a2:f1:39:6a:8c:2e:f3:44:10:33:02:36:
        c6:d7:55:49:69:fb:d5:bc:c2:be:ee:0a:c5:88:4e:3a:91:99:
        db:af:0e:92:40:be:e2:a6:73:da:92:c6:1f:05:3c:75:65:e2:
        f1:a0:34:48:a2:67:1e:e7:06:63:f3:75:aa:c5:a0:ac:9b:6a:
        ee:87:99:d7:3e:e6:4f:78:f2:73:9f:26:85:1b:6b:ea:6e:25:
        35:be:14:e9
-----BEGIN CERTIFICATE-----
MIIDdTCCAl0CFBfuIWqgtWkwL6avewtx5bRUFBn2MA0GCSqGSIb3DQEBCwUAMHEx
CzAJBgNVBAYTAkMxMQwwCgYDVQQIDANKUzExDDAKBgNVBAcMA1dYMTENMAsGA1UE
CgwERVNQMTENMAsGA1UECwwERVNQMTETMBEGA1UEAwwKU2VydmVyMSBDQTETMBEG
CSqGSIb3DQEJARYERVNQMTAeFw0yNjAzMTAxMDMzMjJaFw0zOTExMTcxMDMzMjJa
MH0xCzAJBgNVBAYTAkMzMQ4wDAYDVQQIDAVKUzMzMzEOMAwGA1UEBwwFV1gzMzMx
DzANBgNVBAoMBkVTUDMzMzEPMA0GA1UECwwGRVNQMzMzMRUwEwYDVQQDDAxTZXJ2
ZXIzMzMgQ0ExFTATBgkqhkiG9w0BCQEWBkVTUDMzMzCCASIwDQYJKoZIhvcNAQEB
BQADggEPADCCAQoCggEBAJzk/pqjPJNph+oVwMT2PnYdtD9uraresTYBUpYuBATG
fyyrzjiNbkTF/8x2UV9MLrArpJW1Sb2+tZOzPT2w7kGn5s1oHAnXpQeONRhuyY2D
GBIJOxPIJyMZKRIQEYd7o0FTgDGlbmH9jq3uVQB8WJwewqOWGnuBtU5P1a2H1ZJ2
+JN/rQSfi5ljB2eoc6HvAD0XRJ0X9rHA27mBUzhvX0Dg3A2YzwwgRuYD/TH2UJ0F
P+rVyti3Z9LdiP3oDNzy4OTrGmdr/RRsc1SwWqScsioucqY9vpaiJ/S1MNbTyBqA
MswZf8brJaTGnd0qkw9my+vus5WzI6OHXI2JRs7YpnMCAwEAATANBgkqhkiG9w0B
AQsFAAOCAQEAJiLRaFetXZJkZgSbbMJuCkzKaQoRtKB139MIr7h7dwGFanBPUnhw
cOvYVNiTDwi5N2QGhrgGDZFCtPd1dDEJ7jghrpCLATUUtzGsOE9SrCqb5A6oJ6gH
eH/SUK4NCeEHkq5+nC+gzgssnYQlbkd9bMBg5lpFEzWm0muvQ5Sm5zcTVJR5n3w9
zgSL1xcPGNPewYqMQbAnI6kj5z5DRfqRiVroiOlC7lawovE5aowu80QQMwI2xtdV
SWn71bzCvu4KxYhOOpGZ268OkkC+4qZz2pLGHwU8dWXi8aA0SKJnHucGY/N1qsWg
rJtq7oeZ1z7mT3jyc58mhRtr6m4lNb4U6Q==
-----END CERTIFICATE-----
