Certificate:
    Data:
        Version: 1 (0x0)
        Serial Number:
            17:ee:21:6a:a0:b5:69:30:2f:a6:af:7b:0b:71:e5:b4:54:14:19:f5
        Signature Algorithm: sha256WithRSAEncryption
        Issuer: C = C1, ST = JS1, L = WX1, O = ESP1, OU = ESP1, CN = Server1 CA, emailAddress = ESP1
        Validity
            Not Before: Mar 10 10:33:22 2026 GMT
            Not After : Nov 17 10:33:22 2039 GMT
        Subject: C = C2, ST = JS22, L = WX22, O = ESP22, OU = ESP22, CN = Server22 CA, emailAddress = ESP22
        Subject Public Key Info:
            Public Key Algorithm: rsaEncryption
                Public-Key: (2048 bit)
                Modulus:
                    00:b6:9f:ba:ab:79:4b:d0:41:f9:ca:5d:c6:e5:4d:
                    26:67:35:18:44:40:47:4a:ce:0b:aa:6d:1e:01:4d:
                    4d:73:a2:4d:59:fc:73:16:ac:d5:a0:85:24:e5:82:
                    21:42:88:f0:02:ce:d4:4e:f3:02:d6:92:22:63:58:
                    d4:ad:cf:34:c8:38:fd:cf:c8:2b:ee:5a:20:6d:e0:
                    fa:c3:8a:02:42:e3:f1:75:c2:47:1d:d8:b7:05:0e:
                    28:b4:c8:4b:ce:fb:1e:ea:cc:a4:7b:c7:aa:85:1d:
                    4a:6f:be:54:07:42:56:74:14:da:a2:49:23:12:b2:
                    9a:ba:01:c7:4f:01:d9:68:a0:9c:83:e1:11:b0:cf:
                    af:51:e0:b1:d8:9f:7b:4b:9f:cd:2a:a9:43:a8:f1:
                    b2:a9:b1:3b:43:b6:56:ce:c4:1a:6a:f9:33:c1:23:
                    2f:16:2e:34:9d:03:d5:03:e7:09:dd:e6:6d:9f:e0:
                    e9:0c:c7:ef:7a:b3:00:ce:32:5e:1a:17:fe:55:b2:
                    b6:a2:9c:2a:f7:9e:87:9e:af:41:0d:a2:e0:a8:c5:
                    ab:d1:67:66:82:11:71:dc:59:6f:c6:83:92:5e:92:
                    2e:6c:10:e0:1d:f1:07:ce:a2:83:a6:2d:5d:99:b1:
                    8c:58:34:93:f9:1c:49:6b:12:56:dd:cd:f7:bb:eb:
                    e4:59
                Exponent: 65537 (0x10001)
    Signature Algorithm: sha256WithRSAEncryption
    Signature Value:
        19:e0:9f:bf:e2:ef:47:4c:48:eb:f7:80:3e:aa:9b:a2:c3:6f:
        4c:9d:0e:11:89:ba:33:ca:bc:24:07:4c:06:77:ad:e5:28:1d:
        6a:63:97:54:d2:f3:d0:e4:c0:94:06:fe:ba:a4:27:1a:3e:18:
        6e:c9:c8:98:1e:07:8d:2a:dc:7d:5e:b3:ec:bf:3e:74:7d:14:
        7a:4e:46:9d:58:64:83:97:51:a7:a6:2d:a5:b5:01:4a:be:5f:
        bc:a7:58:27:76:8c:8d:6e:17:76:77:62:77:a3:f1:6d:2d:4a:
        49:1c:4a:cd:21:60:8f:b3:83:11:b1:06:ad:73:b4:6b:61:b2:
        a4:83:8c:89:76:2b:f0:76:da:60:44:34:31:98:25:ca:a3:0a:
        be:96:45:f2:f3:14:be:d7:83:54:80:74:51:05:e2:93:13:6f:
        61:63:2d:cb:91:f6:69:ac:79:b6:0c:0b:36:62:ea:5a:f4:1c:
        37:3d:d7:35:b6:e4:64:7b:c5:54:0c:f6:6d:7e:fd:a2:03:a9:
        96:05:f8:c4:ce:c6:af:04:b7:0d:68:2f:ee:c4:1c:ed:55:76:
        dc:9a:45:4e:7e:72:74:ae:61:7b:de:11:32:40:17:3a:1e:85:
        08:57:7d:9d:c5:8b:7c:49:ab:66:30:ed:e6:bd:65:b8:e0:29:
        70:61:26:09
-----BEGIN CERTIFICATE-----
MIIDbzCCAlcCFBfuIWqgtWkwL6avewtx5bRUFBn1MA0GCSqGSIb3DQEBCwUAMHEx
CzAJBgNVBAYTAkMxMQwwCgYDVQQIDANKUzExDDAKBgNVBAcMA1dYMTENMAsGA1UE
CgwERVNQMTENMAsGA1UECwwERVNQMTETMBEGA1UEAwwKU2VydmVyMSBDQTETMBEG
CSqGSIb3DQEJARYERVNQMTAeFw0yNjAzMTAxMDMzMjJaFw0zOTExMTcxMDMzMjJa
MHcxCzAJBgNVBAYTAkMyMQ0wCwYDVQQIDARKUzIyMQ0wCwYDVQQHDARXWDIyMQ4w
DAYDVQQKDAVFU1AyMjEOMAwGA1UECwwFRVNQMjIxFDASBgNVBAMMC1NlcnZlcjIy
IENBMRQwEgYJKoZIhvcNAQkBFgVFU1AyMjCCASIwDQYJKoZIhvcNAQEBBQADggEP
ADCCAQoCggEBALafuqt5S9BB+cpdxuVNJmc1GERAR0rOC6ptHgFNTXOiTVn8cxas
1aCFJOWCIUKI8ALO1E7zAtaSImNY1K3PNMg4/c/IK+5aIG3g+sOKAkLj8XXCRx3Y
twUOKLTIS877HurMpHvHqoUdSm++VAdCVnQU2qJJIxKymroBx08B2WignIPhEbDP
r1Hgsdife0ufzSqpQ6jxsqmxO0O2Vs7EGmr5M8EjLxYuNJ0D1QPnCd3mbZ/g6QzH
73qzAM4yXhoX/lWytqKcKveeh56vQQ2i4KjFq9FnZoIRcdxZb8aDkl6SLmwQ4B3x
B86ig6YtXZmxjFg0k/kcSWsSVt3N97vr5FkCAwEAATANBgkqhkiG9w0BAQsFAAOC
AQEAGeCfv+LvR0xI6/eAPqqbosNvTJ0OEYm6M8q8JAdMBnet5SgdamOXVNLz0OTA
lAb+uqQnGj4YbsnImB4HjSrcfV6z7L8+dH0Uek5GnVhkg5dRp6YtpbUBSr5fvKdY
J3aMjW4Xdndid6PxbS1KSRxKzSFgj7ODEbEGrXO0a2GypIOMiXYr8HbaYEQ0MZgl
yqMKvpZF8vMUvteDVIB0UQXikxNvYWMty5H2aax5tgwLNmLqWvQcNz3XNbbkZHvF
VAz2bX79ogOplgX4xM7GrwS3DWgv7sQc7VV23JpFTn5ydK5he94RMkAXOh6FCFd9
ncWLfEmrZjDt5r1luOApcGEmCQ==
-----END CERTIFICATE-----
